target datalayout = "e-m:e-p270:32:32-p271:32:32-p272:64:64-i64:64-i128:128-f80:128-n8:16:32:64-S128"
target triple = "x86_64-pc-linux-gnu"

%struct.batch_job_launch_msg = type { ptr, ptr, i32, i32, ptr, i32, i32, i32, i32, i32, i32, ptr, i32, i32, i16, ptr, ptr, ptr, i16, i16, ptr, i32, ptr, ptr, ptr, ptr, ptr, ptr, ptr, i32, ptr, i32, ptr, i16, ptr, i8, i8, ptr, i64, i64, i16, ptr, ptr, i32, ptr, ptr, ptr, i8 }

; Function Attrs: nounwind uwtable
define dso_local void @slurm_free_job_launch_msg(ptr noundef %0) #0 {
  %2 = alloca ptr, align 8
  %3 = alloca i32, align 4
  store ptr %0, ptr %2, align 8
  call void @llvm.lifetime.start.p0(i64 4, ptr %3) #11
  %4 = load ptr, ptr %2, align 8
  %5 = icmp ne ptr %4, null
  br i1 %5, label %6, label %137

6:                                                ; preds = %1
  %7 = load ptr, ptr %2, align 8
  %8 = getelementptr inbounds nuw %struct.batch_job_launch_msg, ptr %7, i32 0, i32 0
  call void @slurm_xfree(ptr noundef %8)
  %9 = load ptr, ptr %2, align 8
  %10 = getelementptr inbounds nuw %struct.batch_job_launch_msg, ptr %9, i32 0, i32 1
  call void @slurm_xfree(ptr noundef %10)
  %11 = load ptr, ptr %2, align 8
  %12 = getelementptr inbounds nuw %struct.batch_job_launch_msg, ptr %11, i32 0, i32 30
  %13 = load ptr, ptr %12, align 8
  %14 = icmp ne ptr %13, null
  br i1 %14, label %15, label %35

15:                                               ; preds = %6
  store i32 0, ptr %3, align 4
  br label %16

16:                                               ; preds = %29, %15
  %17 = load i32, ptr %3, align 4
  %18 = load ptr, ptr %2, align 8
  %19 = getelementptr inbounds nuw %struct.batch_job_launch_msg, ptr %18, i32 0, i32 29
  %20 = load i32, ptr %19, align 8
  %21 = icmp ult i32 %17, %20
  br i1 %21, label %22, label %32

22:                                               ; preds = %16
  %23 = load ptr, ptr %2, align 8
  %24 = getelementptr inbounds nuw %struct.batch_job_launch_msg, ptr %23, i32 0, i32 30
  %25 = load ptr, ptr %24, align 8
  %26 = load i32, ptr %3, align 4
  %27 = sext i32 %26 to i64
  %28 = getelementptr inbounds ptr, ptr %25, i64 %27
  call void @slurm_xfree(ptr noundef %28)
  br label %29

29:                                               ; preds = %22
  %30 = load i32, ptr %3, align 4
  %31 = add nsw i32 %30, 1
  store i32 %31, ptr %3, align 4
  br label %16, !llvm.loop !35

32:                                               ; preds = %16
  %33 = load ptr, ptr %2, align 8
  %34 = getelementptr inbounds nuw %struct.batch_job_launch_msg, ptr %33, i32 0, i32 30
  call void @slurm_xfree(ptr noundef %34)
  br label %35

35:                                               ; preds = %32, %6
  %36 = load ptr, ptr %2, align 8
  %37 = getelementptr inbounds nuw %struct.batch_job_launch_msg, ptr %36, i32 0, i32 4
  call void @slurm_xfree(ptr noundef %37)
  %38 = load ptr, ptr %2, align 8
  %39 = getelementptr inbounds nuw %struct.batch_job_launch_msg, ptr %38, i32 0, i32 15
  call void @slurm_xfree(ptr noundef %39)
  %40 = load ptr, ptr %2, align 8
  %41 = getelementptr inbounds nuw %struct.batch_job_launch_msg, ptr %40, i32 0, i32 16
  call void @slurm_xfree(ptr noundef %41)
  %42 = load ptr, ptr %2, align 8
  %43 = getelementptr inbounds nuw %struct.batch_job_launch_msg, ptr %42, i32 0, i32 17
  call void @slurm_xfree(ptr noundef %43)
  %44 = load ptr, ptr %2, align 8
  %45 = getelementptr inbounds nuw %struct.batch_job_launch_msg, ptr %44, i32 0, i32 34
  %46 = load ptr, ptr %45, align 8
  call void @slurm_cred_destroy(ptr noundef %46)
  %47 = load ptr, ptr %2, align 8
  %48 = getelementptr inbounds nuw %struct.batch_job_launch_msg, ptr %47, i32 0, i32 32
  %49 = load ptr, ptr %48, align 8
  %50 = icmp ne ptr %49, null
  br i1 %50, label %51, label %71

51:                                               ; preds = %35
  store i32 0, ptr %3, align 4
  br label %52

52:                                               ; preds = %65, %51
  %53 = load i32, ptr %3, align 4
  %54 = load ptr, ptr %2, align 8
  %55 = getelementptr inbounds nuw %struct.batch_job_launch_msg, ptr %54, i32 0, i32 31
  %56 = load i32, ptr %55, align 8
  %57 = icmp ult i32 %53, %56
  br i1 %57, label %58, label %68

58:                                               ; preds = %52
  %59 = load ptr, ptr %2, align 8
  %60 = getelementptr inbounds nuw %struct.batch_job_launch_msg, ptr %59, i32 0, i32 32
  %61 = load ptr, ptr %60, align 8
  %62 = load i32, ptr %3, align 4
  %63 = sext i32 %62 to i64
  %64 = getelementptr inbounds ptr, ptr %61, i64 %63
  call void @slurm_xfree(ptr noundef %64)
  br label %65

65:                                               ; preds = %58
  %66 = load i32, ptr %3, align 4
  %67 = add nsw i32 %66, 1
  store i32 %67, ptr %3, align 4
  br label %52, !llvm.loop !36

68:                                               ; preds = %52
  %69 = load ptr, ptr %2, align 8
  %70 = getelementptr inbounds nuw %struct.batch_job_launch_msg, ptr %69, i32 0, i32 32
  call void @slurm_xfree(ptr noundef %70)
  br label %71

71:                                               ; preds = %68, %35
  %72 = load ptr, ptr %2, align 8
  %73 = getelementptr inbounds nuw %struct.batch_job_launch_msg, ptr %72, i32 0, i32 11
  call void @slurm_xfree(ptr noundef %73)
  %74 = load ptr, ptr %2, align 8
  %75 = getelementptr inbounds nuw %struct.batch_job_launch_msg, ptr %74, i32 0, i32 20
  call void @slurm_xfree(ptr noundef %75)
  %76 = load ptr, ptr %2, align 8
  %77 = getelementptr inbounds nuw %struct.batch_job_launch_msg, ptr %76, i32 0, i32 37
  call void @slurm_xfree(ptr noundef %77)
  %78 = load ptr, ptr %2, align 8
  %79 = getelementptr inbounds nuw %struct.batch_job_launch_msg, ptr %78, i32 0, i32 26
  call void @slurm_xfree(ptr noundef %79)
  %80 = load ptr, ptr %2, align 8
  %81 = getelementptr inbounds nuw %struct.batch_job_launch_msg, ptr %80, i32 0, i32 41
  call void @slurm_xfree(ptr noundef %81)
  %82 = load ptr, ptr %2, align 8
  %83 = getelementptr inbounds nuw %struct.batch_job_launch_msg, ptr %82, i32 0, i32 22
  call void @slurm_xfree(ptr noundef %83)
  br label %84

84:                                               ; preds = %71
  %85 = load ptr, ptr %2, align 8
  %86 = getelementptr inbounds nuw %struct.batch_job_launch_msg, ptr %85, i32 0, i32 23
  %87 = load ptr, ptr %86, align 8
  %88 = icmp ne ptr %87, null
  br i1 %88, label %89, label %93

89:                                               ; preds = %84
  %90 = load ptr, ptr %2, align 8
  %91 = getelementptr inbounds nuw %struct.batch_job_launch_msg, ptr %90, i32 0, i32 23
  %92 = load ptr, ptr %91, align 8
  call void @free_buf(ptr noundef %92)
  br label %93

93:                                               ; preds = %89, %84
  %94 = load ptr, ptr %2, align 8
  %95 = getelementptr inbounds nuw %struct.batch_job_launch_msg, ptr %94, i32 0, i32 23
  store ptr null, ptr %95, align 8
  br label %96

96:                                               ; preds = %93
  br label %97

97:                                               ; preds = %96
  %98 = load ptr, ptr %2, align 8
  %99 = getelementptr inbounds nuw %struct.batch_job_launch_msg, ptr %98, i32 0, i32 42
  %100 = load ptr, ptr %99, align 8
  %101 = icmp ne ptr %100, null
  br i1 %101, label %102, label %122

102:                                              ; preds = %97
  store i32 0, ptr %3, align 4
  br label %103

103:                                              ; preds = %116, %102
  %104 = load i32, ptr %3, align 4
  %105 = load ptr, ptr %2, align 8
  %106 = getelementptr inbounds nuw %struct.batch_job_launch_msg, ptr %105, i32 0, i32 43
  %107 = load i32, ptr %106, align 8
  %108 = icmp ult i32 %104, %107
  br i1 %108, label %109, label %119

109:                                              ; preds = %103
  %110 = load ptr, ptr %2, align 8
  %111 = getelementptr inbounds nuw %struct.batch_job_launch_msg, ptr %110, i32 0, i32 42
  %112 = load ptr, ptr %111, align 8
  %113 = load i32, ptr %3, align 4
  %114 = sext i32 %113 to i64
  %115 = getelementptr inbounds ptr, ptr %112, i64 %114
  call void @slurm_xfree(ptr noundef %115)
  br label %116

116:                                              ; preds = %109
  %117 = load i32, ptr %3, align 4
  %118 = add nsw i32 %117, 1
  store i32 %118, ptr %3, align 4
  br label %103, !llvm.loop !37

119:                                              ; preds = %103
  %120 = load ptr, ptr %2, align 8
  %121 = getelementptr inbounds nuw %struct.batch_job_launch_msg, ptr %120, i32 0, i32 42
  call void @slurm_xfree(ptr noundef %121)
  br label %122

122:                                              ; preds = %119, %97
  %123 = load ptr, ptr %2, align 8
  %124 = getelementptr inbounds nuw %struct.batch_job_launch_msg, ptr %123, i32 0, i32 24
  call void @slurm_xfree(ptr noundef %124)
  %125 = load ptr, ptr %2, align 8
  %126 = getelementptr inbounds nuw %struct.batch_job_launch_msg, ptr %125, i32 0, i32 25
  call void @slurm_xfree(ptr noundef %126)
  %127 = load ptr, ptr %2, align 8
  %128 = getelementptr inbounds nuw %struct.batch_job_launch_msg, ptr %127, i32 0, i32 27
  call void @slurm_xfree(ptr noundef %128)
  %129 = load ptr, ptr %2, align 8
  %130 = getelementptr inbounds nuw %struct.batch_job_launch_msg, ptr %129, i32 0, i32 44
  call void @slurm_xfree(ptr noundef %130)
  %131 = load ptr, ptr %2, align 8
  %132 = getelementptr inbounds nuw %struct.batch_job_launch_msg, ptr %131, i32 0, i32 45
  call void @slurm_xfree(ptr noundef %132)
  %133 = load ptr, ptr %2, align 8
  %134 = getelementptr inbounds nuw %struct.batch_job_launch_msg, ptr %133, i32 0, i32 46
  call void @slurm_xfree(ptr noundef %134)
  %135 = load ptr, ptr %2, align 8
  %136 = getelementptr inbounds nuw %struct.batch_job_launch_msg, ptr %135, i32 0, i32 28
  call void @slurm_xfree(ptr noundef %136)
  call void @slurm_xfree(ptr noundef %2)
  br label %137

137:                                              ; preds = %122, %1
  call void @llvm.lifetime.end.p0(i64 4, ptr %3) #11
  ret void
}