; Function Attrs: nounwind uwtable
define dso_local void @slurm_free_job_launch_msg(ptr noundef %0) local_unnamed_addr #1 {
  %2 = alloca ptr, align 8
  store ptr %0, ptr %2, align 8
  %.not = icmp eq ptr %0, null
  br i1 %.not, label %58, label %3

3:                                                ; preds = %1
  tail call void @slurm_xfree(ptr noundef nonnull %0) #24
  %4 = getelementptr inbounds nuw i8, ptr %0, i64 8
  tail call void @slurm_xfree(ptr noundef nonnull %4) #24
  %5 = getelementptr inbounds nuw i8, ptr %0, i64 192
  %6 = load ptr, ptr %5, align 8
  %.not11 = icmp eq ptr %6, null
  br i1 %.not11, label %14, label %.preheader16

.preheader16:                                     ; preds = %3
  %7 = getelementptr inbounds nuw i8, ptr %0, i64 184
  %8 = load i32, ptr %7, align 8
  %.not28 = icmp eq i32 %8, 0
  br i1 %.not28, label %._crit_edge, label %.lr.ph

.lr.ph:                                           ; preds = %.preheader16, %.lr.ph
  %indvars.iv = phi i64 [ %indvars.iv.next, %.lr.ph ], [ 0, %.preheader16 ]
  %9 = load ptr, ptr %5, align 8
  %10 = getelementptr inbounds nuw ptr, ptr %9, i64 %indvars.iv
  tail call void @slurm_xfree(ptr noundef %10) #24
  %indvars.iv.next = add nuw nsw i64 %indvars.iv, 1
  %11 = load i32, ptr %7, align 8
  %12 = zext i32 %11 to i64
  %13 = icmp samesign ult i64 %indvars.iv.next, %12
  br i1 %13, label %.lr.ph, label %._crit_edge, !llvm.loop !36

._crit_edge:                                      ; preds = %.lr.ph, %.preheader16
  tail call void @slurm_xfree(ptr noundef nonnull %5) #24
  br label %14

14:                                               ; preds = %._crit_edge, %3
  %15 = getelementptr inbounds nuw i8, ptr %0, i64 24
  tail call void @slurm_xfree(ptr noundef nonnull %15) #24
  %16 = getelementptr inbounds nuw i8, ptr %0, i64 80
  tail call void @slurm_xfree(ptr noundef nonnull %16) #24
  %17 = getelementptr inbounds nuw i8, ptr %0, i64 88
  tail call void @slurm_xfree(ptr noundef nonnull %17) #24
  %18 = getelementptr inbounds nuw i8, ptr %0, i64 96
  tail call void @slurm_xfree(ptr noundef nonnull %18) #24
  %19 = getelementptr inbounds nuw i8, ptr %0, i64 224
  %20 = load ptr, ptr %19, align 8
  tail call void @slurm_cred_destroy(ptr noundef %20) #24
  %21 = getelementptr inbounds nuw i8, ptr %0, i64 208
  %22 = load ptr, ptr %21, align 8
  %.not12 = icmp eq ptr %22, null
  br i1 %.not12, label %30, label %.preheader15

.preheader15:                                     ; preds = %14
  %23 = getelementptr inbounds nuw i8, ptr %0, i64 200
  %24 = load i32, ptr %23, align 8
  %.not29 = icmp eq i32 %24, 0
  br i1 %.not29, label %._crit_edge22, label %.lr.ph21

.lr.ph21:                                         ; preds = %.preheader15, %.lr.ph21
  %indvars.iv32 = phi i64 [ %indvars.iv.next33, %.lr.ph21 ], [ 0, %.preheader15 ]
  %25 = load ptr, ptr %21, align 8
  %26 = getelementptr inbounds nuw ptr, ptr %25, i64 %indvars.iv32
  tail call void @slurm_xfree(ptr noundef %26) #24
  %indvars.iv.next33 = add nuw nsw i64 %indvars.iv32, 1
  %27 = load i32, ptr %23, align 8
  %28 = zext i32 %27 to i64
  %29 = icmp samesign ult i64 %indvars.iv.next33, %28
  br i1 %29, label %.lr.ph21, label %._crit_edge22, !llvm.loop !37

._crit_edge22:                                    ; preds = %.lr.ph21, %.preheader15
  tail call void @slurm_xfree(ptr noundef nonnull %21) #24
  br label %30

30:                                               ; preds = %._crit_edge22, %14
  %31 = getelementptr inbounds nuw i8, ptr %0, i64 56
  tail call void @slurm_xfree(ptr noundef nonnull %31) #24
  %32 = getelementptr inbounds nuw i8, ptr %0, i64 112
  tail call void @slurm_xfree(ptr noundef nonnull %32) #24
  %33 = getelementptr inbounds nuw i8, ptr %0, i64 240
  tail call void @slurm_xfree(ptr noundef nonnull %33) #24
  %34 = getelementptr inbounds nuw i8, ptr %0, i64 160
  tail call void @slurm_xfree(ptr noundef nonnull %34) #24
  %35 = getelementptr inbounds nuw i8, ptr %0, i64 272
  tail call void @slurm_xfree(ptr noundef nonnull %35) #24
  %36 = getelementptr inbounds nuw i8, ptr %0, i64 128
  tail call void @slurm_xfree(ptr noundef nonnull %36) #24
  %37 = getelementptr inbounds nuw i8, ptr %0, i64 136
  %38 = load ptr, ptr %37, align 8
  %.not13 = icmp eq ptr %38, null
  br i1 %.not13, label %40, label %39

39:                                               ; preds = %30
  tail call void @free_buf(ptr noundef nonnull %38) #24
  br label %40

40:                                               ; preds = %39, %30
  store ptr null, ptr %37, align 8
  %41 = getelementptr inbounds nuw i8, ptr %0, i64 280
  %42 = load ptr, ptr %41, align 8
  %.not14 = icmp eq ptr %42, null
  br i1 %.not14, label %50, label %.preheader

.preheader:                                       ; preds = %40
  %43 = getelementptr inbounds nuw i8, ptr %0, i64 288
  %44 = load i32, ptr %43, align 8
  %.not30 = icmp eq i32 %44, 0
  br i1 %.not30, label %._crit_edge26, label %.lr.ph25

.lr.ph25:                                         ; preds = %.preheader, %.lr.ph25
  %indvars.iv35 = phi i64 [ %indvars.iv.next36, %.lr.ph25 ], [ 0, %.preheader ]
  %45 = load ptr, ptr %41, align 8
  %46 = getelementptr inbounds nuw ptr, ptr %45, i64 %indvars.iv35
  tail call void @slurm_xfree(ptr noundef %46) #24
  %indvars.iv.next36 = add nuw nsw i64 %indvars.iv35, 1
  %47 = load i32, ptr %43, align 8
  %48 = zext i32 %47 to i64
  %49 = icmp samesign ult i64 %indvars.iv.next36, %48
  br i1 %49, label %.lr.ph25, label %._crit_edge26, !llvm.loop !38

._crit_edge26:                                    ; preds = %.lr.ph25, %.preheader
  tail call void @slurm_xfree(ptr noundef nonnull %41) #24
  br label %50

50:                                               ; preds = %._crit_edge26, %40
  %51 = getelementptr inbounds nuw i8, ptr %0, i64 144
  tail call void @slurm_xfree(ptr noundef nonnull %51) #24
  %52 = getelementptr inbounds nuw i8, ptr %0, i64 152
  tail call void @slurm_xfree(ptr noundef nonnull %52) #24
  %53 = getelementptr inbounds nuw i8, ptr %0, i64 168
  tail call void @slurm_xfree(ptr noundef nonnull %53) #24
  %54 = getelementptr inbounds nuw i8, ptr %0, i64 296
  tail call void @slurm_xfree(ptr noundef nonnull %54) #24
  %55 = getelementptr inbounds nuw i8, ptr %0, i64 304
  tail call void @slurm_xfree(ptr noundef nonnull %55) #24
  %56 = getelementptr inbounds nuw i8, ptr %0, i64 312
  tail call void @slurm_xfree(ptr noundef nonnull %56) #24
  %57 = getelementptr inbounds nuw i8, ptr %0, i64 176
  tail call void @slurm_xfree(ptr noundef nonnull %57) #24
  call void @slurm_xfree(ptr noundef nonnull %2) #24
  br label %58

58:                                               ; preds = %50, %1
  ret void
}